target datalayout = "e-m:e-p270:32:32-p271:32:32-p272:64:64-i64:64-i128:128-f80:128-n8:16:32:64-S128"
target triple = "x86_64-unknown-linux-gnu"

%struct.redisCommand = type { ptr, ptr, ptr, ptr, i32, ptr, ptr, i32, ptr, i32, ptr, i32, ptr, i32, i64, i64, ptr, i32, ptr, i32, ptr, ptr, i64, i64, i64, i64, i32, ptr, ptr, %struct.keySpec, ptr, ptr, ptr }
%struct.keySpec = type { ptr, i64, i32, %union.anon, i32, %union.anon.2 }
%union.anon = type { %struct.anon.1 }
%struct.anon.1 = type { ptr, i32 }
%union.anon.2 = type { %struct.anon.3 }
%struct.anon.3 = type { i32, i32, i32 }
%struct.replyFlagNames = type { i64, ptr }

; Function Attrs: nounwind uwtable
define dso_local void @addReplyCommandFlags(ptr noundef %c, i64 noundef %flags, ptr noundef %replyFlags) #0 {
entry:
  %c.addr = alloca ptr, align 8
  %flags.addr = alloca i64, align 8
  %replyFlags.addr = alloca ptr, align 8
  %count = alloca i32, align 4
  %j = alloca i32, align 4
  store ptr %c, ptr %c.addr, align 8
  store i64 %flags, ptr %flags.addr, align 8
  store ptr %replyFlags, ptr %replyFlags.addr, align 8
  store i32 0, ptr %count, align 4
  store i32 0, ptr %j, align 4
  br label %while.cond

while.cond:                                       ; preds = %if.end, %entry
  %0 = load ptr, ptr %replyFlags.addr, align 8
  %1 = load i32, ptr %j, align 4
  %idxprom = sext i32 %1 to i64
  %arrayidx = getelementptr inbounds %struct.replyFlagNames, ptr %0, i64 %idxprom
  %name = getelementptr inbounds %struct.replyFlagNames, ptr %arrayidx, i32 0, i32 1
  %2 = load ptr, ptr %name, align 8
  %tobool = icmp ne ptr %2, null
  br i1 %tobool, label %while.body, label %while.end

while.body:                                       ; preds = %while.cond
  %3 = load i64, ptr %flags.addr, align 8
  %4 = load ptr, ptr %replyFlags.addr, align 8
  %5 = load i32, ptr %j, align 4
  %idxprom1 = sext i32 %5 to i64
  %arrayidx2 = getelementptr inbounds %struct.replyFlagNames, ptr %4, i64 %idxprom1
  %flag = getelementptr inbounds %struct.replyFlagNames, ptr %arrayidx2, i32 0, i32 0
  %6 = load i64, ptr %flag, align 8
  %and = and i64 %3, %6
  %tobool3 = icmp ne i64 %and, 0
  br i1 %tobool3, label %if.then, label %if.end

if.then:                                          ; preds = %while.body
  %7 = load i32, ptr %count, align 4
  %inc = add nsw i32 %7, 1
  store i32 %inc, ptr %count, align 4
  br label %if.end

if.end:                                           ; preds = %if.then, %while.body
  %8 = load i32, ptr %j, align 4
  %inc4 = add nsw i32 %8, 1
  store i32 %inc4, ptr %j, align 4
  br label %while.cond, !llvm.loop !50

while.end:                                        ; preds = %while.cond
  %9 = load ptr, ptr %c.addr, align 8
  %10 = load i32, ptr %count, align 4
  %conv = sext i32 %10 to i64
  call void @addReplySetLen(ptr noundef %9, i64 noundef %conv)
  store i32 0, ptr %j, align 4
  br label %while.cond5

while.cond5:                                      ; preds = %if.end20, %while.end
  %11 = load ptr, ptr %replyFlags.addr, align 8
  %12 = load i32, ptr %j, align 4
  %idxprom6 = sext i32 %12 to i64
  %arrayidx7 = getelementptr inbounds %struct.replyFlagNames, ptr %11, i64 %idxprom6
  %name8 = getelementptr inbounds %struct.replyFlagNames, ptr %arrayidx7, i32 0, i32 1
  %13 = load ptr, ptr %name8, align 8
  %tobool9 = icmp ne ptr %13, null
  br i1 %tobool9, label %while.body10, label %while.end22

while.body10:                                     ; preds = %while.cond5
  %14 = load i64, ptr %flags.addr, align 8
  %15 = load ptr, ptr %replyFlags.addr, align 8
  %16 = load i32, ptr %j, align 4
  %idxprom11 = sext i32 %16 to i64
  %arrayidx12 = getelementptr inbounds %struct.replyFlagNames, ptr %15, i64 %idxprom11
  %flag13 = getelementptr inbounds %struct.replyFlagNames, ptr %arrayidx12, i32 0, i32 0
  %17 = load i64, ptr %flag13, align 8
  %and14 = and i64 %14, %17
  %tobool15 = icmp ne i64 %and14, 0
  br i1 %tobool15, label %if.then16, label %if.end20

if.then16:                                        ; preds = %while.body10
  %18 = load ptr, ptr %c.addr, align 8
  %19 = load ptr, ptr %replyFlags.addr, align 8
  %20 = load i32, ptr %j, align 4
  %idxprom17 = sext i32 %20 to i64
  %arrayidx18 = getelementptr inbounds %struct.replyFlagNames, ptr %19, i64 %idxprom17
  %name19 = getelementptr inbounds %struct.replyFlagNames, ptr %arrayidx18, i32 0, i32 1
  %21 = load ptr, ptr %name19, align 8
  call void @addReplyStatus(ptr noundef %18, ptr noundef %21)
  br label %if.end20

if.end20:                                         ; preds = %if.then16, %while.body10
  %22 = load i32, ptr %j, align 4
  %inc21 = add nsw i32 %22, 1
  store i32 %inc21, ptr %j, align 4
  br label %while.cond5, !llvm.loop !51

while.end22:                                      ; preds = %while.cond5
  ret void
}

; Function Attrs: nounwind uwtable
define dso_local void @addReplyFlagsForCommand(ptr noundef %c, ptr noundef %cmd) #0 {
entry:
  %c.addr = alloca ptr, align 8
  %cmd.addr = alloca ptr, align 8
  %flagNames = alloca [21 x %struct.replyFlagNames], align 16
  store ptr %c, ptr %c.addr, align 8
  store ptr %cmd, ptr %cmd.addr, align 8
  call void @llvm.memcpy.p0.p0.i64(ptr align 16 %flagNames, ptr align 16 @__const.addReplyFlagsForCommand.flagNames, i64 336, i1 false)
  %0 = load ptr, ptr %c.addr, align 8
  %1 = load ptr, ptr %cmd.addr, align 8
  %flags = getelementptr inbounds %struct.redisCommand, ptr %1, i32 0, i32 14
  %2 = load i64, ptr %flags, align 8
  %arraydecay = getelementptr inbounds [21 x %struct.replyFlagNames], ptr %flagNames, i64 0, i64 0
  call void @addReplyCommandFlags(ptr noundef %0, i64 noundef %2, ptr noundef %arraydecay)
  ret void
}