; Function Attrs: nounwind uwtable
define dso_local void @addReplyFlagsForCommand(ptr noundef %c, ptr nocapture noundef readonly %cmd) local_unnamed_addr #0 {
entry:
  %flags = getelementptr inbounds i8, ptr %cmd, i64 112
  %0 = load i64, ptr %flags, align 8
  br label %while.body.i

while.body.i:                                     ; preds = %entry, %while.body.i
  %indvars.iv.i = phi i64 [ %indvars.iv.next.i, %while.body.i ], [ 0, %entry ]
  %count.016.i = phi i32 [ %spec.select.i, %while.body.i ], [ 0, %entry ]
  %arrayidx18.i = getelementptr inbounds %struct.replyFlagNames, ptr @__const.addReplyFlagsForCommand.flagNames, i64 %indvars.iv.i
  %1 = load i64, ptr %arrayidx18.i, align 16
  %and.i = and i64 %1, %0
  %tobool3.not.i = icmp ne i64 %and.i, 0
  %inc.i = zext i1 %tobool3.not.i to i32
  %spec.select.i = add nuw nsw i32 %count.016.i, %inc.i
  %indvars.iv.next.i = add nuw nsw i64 %indvars.iv.i, 1
  %exitcond = icmp eq i64 %indvars.iv.next.i, 20
  br i1 %exitcond, label %while.end.i, label %while.body.i, !llvm.loop !50

while.end.i:                                      ; preds = %while.body.i
  %2 = zext nneg i32 %spec.select.i to i64
  tail call void @addReplySetLen(ptr noundef %c, i64 noundef %2) #38
  br label %while.body10.i

while.body10.i:                                   ; preds = %while.end.i, %if.end20.i
  %indvars.iv24.i = phi i64 [ %indvars.iv.next25.i, %if.end20.i ], [ 0, %while.end.i ]
  %3 = phi ptr [ %5, %if.end20.i ], [ @.str.220, %while.end.i ]
  %arrayidx722.i = getelementptr inbounds %struct.replyFlagNames, ptr @__const.addReplyFlagsForCommand.flagNames, i64 %indvars.iv24.i
  %4 = load i64, ptr %arrayidx722.i, align 16
  %and14.i = and i64 %4, %0
  %tobool15.not.i = icmp eq i64 %and14.i, 0
  br i1 %tobool15.not.i, label %if.end20.i, label %if.then16.i

if.then16.i:                                      ; preds = %while.body10.i
  tail call void @addReplyStatus(ptr noundef %c, ptr noundef nonnull %3) #38
  br label %if.end20.i

if.end20.i:                                       ; preds = %if.then16.i, %while.body10.i
  %indvars.iv.next25.i = add nuw nsw i64 %indvars.iv24.i, 1
  %name8.i = getelementptr inbounds %struct.replyFlagNames, ptr @__const.addReplyFlagsForCommand.flagNames, i64 %indvars.iv.next25.i, i32 1
  %5 = load ptr, ptr %name8.i, align 8
  %exitcond2 = icmp eq i64 %indvars.iv.next25.i, 20
  br i1 %exitcond2, label %addReplyCommandFlags.exit, label %while.body10.i, !llvm.loop !51

addReplyCommandFlags.exit:                        ; preds = %if.end20.i
  ret void
}